target datalayout = "e-m:e-p270:32:32-p271:32:32-p272:64:64-i64:64-i128:128-f80:128-n8:16:32:64-S128"
target triple = "x86_64-unknown-linux-gnu"

@.str.1 = private unnamed_addr constant [19 x i8] c"../qemu/block/io.c\00", align 1
@.str.29 = private unnamed_addr constant [10 x i8] c"align > 0\00", align 1
@__PRETTY_FUNCTION__.qemu_try_blockalign = private unnamed_addr constant [54 x i8] c"void *qemu_try_blockalign(BlockDriverState *, size_t)\00", align 1

; Function Attrs: nounwind sspstrong uwtable
define dso_local ptr @qemu_try_blockalign(ptr noundef %bs, i64 noundef %size) #0 {
entry:
  %bs.addr = alloca ptr, align 8
  %size.addr = alloca i64, align 8
  %align = alloca i64, align 8
  store ptr %bs, ptr %bs.addr, align 8
  store i64 %size, ptr %size.addr, align 8
  %0 = load ptr, ptr %bs.addr, align 8
  %call = call i64 @bdrv_opt_mem_align(ptr noundef %0)
  store i64 %call, ptr %align, align 8
  br label %do.body

do.body:                                          ; preds = %entry
  br label %do.end

do.end:                                           ; preds = %do.body
  %1 = load i64, ptr %align, align 8
  %cmp = icmp ugt i64 %1, 0
  br i1 %cmp, label %if.then, label %if.else

if.then:                                          ; preds = %do.end
  br label %if.end

if.else:                                          ; preds = %do.end
  call void @__assert_fail(ptr noundef @.str.29, ptr noundef @.str.1, i32 noundef 3327, ptr noundef @__PRETTY_FUNCTION__.qemu_try_blockalign) #10
  unreachable

if.end:                                           ; preds = %if.then
  %2 = load i64, ptr %size.addr, align 8
  %cmp1 = icmp eq i64 %2, 0
  br i1 %cmp1, label %if.then2, label %if.end3

if.then2:                                         ; preds = %if.end
  %3 = load i64, ptr %align, align 8
  store i64 %3, ptr %size.addr, align 8
  br label %if.end3

if.end3:                                          ; preds = %if.then2, %if.end
  %4 = load i64, ptr %align, align 8
  %5 = load i64, ptr %size.addr, align 8
  %call4 = call ptr @qemu_try_memalign(i64 noundef %4, i64 noundef %5)
  ret ptr %call4
}