; Function Attrs: nounwind sspstrong uwtable
define dso_local ptr @qemu_try_blockalign(ptr noundef %bs, i64 noundef %size) local_unnamed_addr #0 {
entry:
  %call = tail call i64 @bdrv_opt_mem_align(ptr noundef %bs) #15
  %cmp.not = icmp eq i64 %call, 0
  br i1 %cmp.not, label %if.else, label %if.end

if.else:                                          ; preds = %entry
  tail call void @__assert_fail(ptr noundef nonnull @.str.29, ptr noundef nonnull @.str.1, i32 noundef 3327, ptr noundef nonnull @__PRETTY_FUNCTION__.qemu_try_blockalign) #16
  unreachable

if.end:                                           ; preds = %entry
  %cmp1 = icmp eq i64 %size, 0
  %spec.select = select i1 %cmp1, i64 %call, i64 %size
  %call4 = tail call ptr @qemu_try_memalign(i64 noundef %call, i64 noundef %spec.select) #15
  ret ptr %call4
}